target datalayout = "e-m:e-p270:32:32-p271:32:32-p272:64:64-i64:64-f80:128-n8:16:32:64-S128"
target triple = "x86_64-pc-linux-gnu"

@.str = private unnamed_addr constant [3 x i8] c"%c\00", align 1
@.str.1 = private unnamed_addr constant [2 x i8] c"\0A\00", align 1

; Function Attrs: noinline nounwind uwtable
define dso_local i32 @main(i32 %0, i8** %1) #0 {
  %3 = alloca i32, align 4
  %4 = alloca i32, align 4
  %5 = alloca i8**, align 8
  %6 = alloca [500 x i8], align 16
  %7 = alloca i32, align 4
  %8 = alloca [500 x i32], align 16
  %9 = alloca i32, align 4
  %10 = alloca i32, align 4
  %11 = alloca i32, align 4
  %12 = alloca i32, align 4
  %13 = alloca [20 x i32], align 16
  %14 = alloca i32, align 4
  %15 = alloca i32, align 4
  %16 = alloca i32, align 4
  %17 = alloca i32, align 4
  store i32 0, i32* %3, align 4
  store i32 %0, i32* %4, align 4
  store i8** %1, i8*** %5, align 8
  %18 = bitcast [500 x i32]* %8 to i8*
  call void @llvm.memset.p0i8.i64(i8* align 16 %18, i8 0, i64 2000, i1 false)
  store i32 1, i32* %9, align 4
  %19 = getelementptr inbounds [500 x i32], [500 x i32]* %8, i64 0, i64 0
  store i32 -1, i32* %19, align 16
  %20 = getelementptr inbounds [500 x i8], [500 x i8]* %6, i64 0, i64 0
  %21 = call i32 (i8*, ...) bitcast (i32 (...)* @gets to i32 (i8*, ...)*)(i8* %20)
  %22 = getelementptr inbounds [500 x i8], [500 x i8]* %6, i64 0, i64 0
  %23 = call i64 @strlen(i8* %22) #4
  %24 = trunc i64 %23 to i32
  store i32 %24, i32* %11, align 4
  %25 = load i32, i32* %11, align 4
  %26 = sext i32 %25 to i64
  %27 = getelementptr inbounds [500 x i8], [500 x i8]* %6, i64 0, i64 %26
  store i8 32, i8* %27, align 1
  store i32 0, i32* %7, align 4
  br label %28

28:                                               ; preds = %55, %2
  %29 = load i32, i32* %7, align 4
  %30 = load i32, i32* %11, align 4
  %31 = icmp sle i32 %29, %30
  br i1 %31, label %32, label %58

32:                                               ; preds = %28
  %33 = load i32, i32* %7, align 4
  %34 = sext i32 %33 to i64
  %35 = getelementptr inbounds [500 x i8], [500 x i8]* %6, i64 0, i64 %34
  %36 = load i8, i8* %35, align 1
  %37 = sext i8 %36 to i32
  %38 = icmp eq i32 %37, 32
  br i1 %38, label %46, label %39

39:                                               ; preds = %32
  %40 = load i32, i32* %7, align 4
  %41 = sext i32 %40 to i64
  %42 = getelementptr inbounds [500 x i8], [500 x i8]* %6, i64 0, i64 %41
  %43 = load i8, i8* %42, align 1
  %44 = sext i8 %43 to i32
  %45 = icmp eq i32 %44, 0
  br i1 %45, label %46, label %54

46:                                               ; preds = %39, %32
  %47 = load i32, i32* %7, align 4
  %48 = load i32, i32* %9, align 4
  %49 = sext i32 %48 to i64
  %50 = getelementptr inbounds [500 x i32], [500 x i32]* %8, i64 0, i64 %49
  store i32 %47, i32* %50, align 4
  %51 = load i32, i32* %9, align 4
  %52 = add nsw i32 %51, 1
  store i32 %52, i32* %9, align 4
  %53 = load i32, i32* %9, align 4
  store i32 %53, i32* %10, align 4
  br label %54

54:                                               ; preds = %46, %39
  br label %55

55:                                               ; preds = %54
  %56 = load i32, i32* %7, align 4
  %57 = add nsw i32 %56, 1
  store i32 %57, i32* %7, align 4
  br label %28

58:                                               ; preds = %28
  store i32 1, i32* %12, align 4
  br label %59

59:                                               ; preds = %78, %58
  %60 = load i32, i32* %12, align 4
  %61 = load i32, i32* %10, align 4
  %62 = icmp slt i32 %60, %61
  br i1 %62, label %63, label %81

63:                                               ; preds = %59
  %64 = load i32, i32* %12, align 4
  %65 = sext i32 %64 to i64
  %66 = getelementptr inbounds [500 x i32], [500 x i32]* %8, i64 0, i64 %65
  %67 = load i32, i32* %66, align 4
  %68 = load i32, i32* %12, align 4
  %69 = sub nsw i32 %68, 1
  %70 = sext i32 %69 to i64
  %71 = getelementptr inbounds [500 x i32], [500 x i32]* %8, i64 0, i64 %70
  %72 = load i32, i32* %71, align 4
  %73 = sub nsw i32 %67, %72
  %74 = sub nsw i32 %73, 1
  %75 = load i32, i32* %12, align 4
  %76 = sext i32 %75 to i64
  %77 = getelementptr inbounds [20 x i32], [20 x i32]* %13, i64 0, i64 %76
  store i32 %74, i32* %77, align 4
  br label %78

78:                                               ; preds = %63
  %79 = load i32, i32* %12, align 4
  %80 = add nsw i32 %79, 1
  store i32 %80, i32* %12, align 4
  br label %59

81:                                               ; preds = %59
  store i32 0, i32* %14, align 4
  store i32 20, i32* %15, align 4
  store i32 1, i32* %12, align 4
  br label %82

82:                                               ; preds = %100, %81
  %83 = load i32, i32* %12, align 4
  %84 = load i32, i32* %10, align 4
  %85 = icmp slt i32 %83, %84
  br i1 %85, label %86, label %103

86:                                               ; preds = %82
  %87 = load i32, i32* %15, align 4
  %88 = load i32, i32* %12, align 4
  %89 = sext i32 %88 to i64
  %90 = getelementptr inbounds [20 x i32], [20 x i32]* %13, i64 0, i64 %89
  %91 = load i32, i32* %90, align 4
  %92 = icmp sgt i32 %87, %91
  br i1 %92, label %93, label %99

93:                                               ; preds = %86
  %94 = load i32, i32* %12, align 4
  %95 = sext i32 %94 to i64
  %96 = getelementptr inbounds [20 x i32], [20 x i32]* %13, i64 0, i64 %95
  %97 = load i32, i32* %96, align 4
  store i32 %97, i32* %15, align 4
  %98 = load i32, i32* %12, align 4
  store i32 %98, i32* %16, align 4
  br label %99

99:                                               ; preds = %93, %86
  br label %100

100:                                              ; preds = %99
  %101 = load i32, i32* %12, align 4
  %102 = add nsw i32 %101, 1
  store i32 %102, i32* %12, align 4
  br label %82

103:                                              ; preds = %82
  store i32 1, i32* %12, align 4
  br label %104

104:                                              ; preds = %122, %103
  %105 = load i32, i32* %12, align 4
  %106 = load i32, i32* %10, align 4
  %107 = icmp slt i32 %105, %106
  br i1 %107, label %108, label %125

108:                                              ; preds = %104
  %109 = load i32, i32* %14, align 4
  %110 = load i32, i32* %12, align 4
  %111 = sext i32 %110 to i64
  %112 = getelementptr inbounds [20 x i32], [20 x i32]* %13, i64 0, i64 %111
  %113 = load i32, i32* %112, align 4
  %114 = icmp slt i32 %109, %113
  br i1 %114, label %115, label %121

115:                                              ; preds = %108
  %116 = load i32, i32* %12, align 4
  %117 = sext i32 %116 to i64
  %118 = getelementptr inbounds [20 x i32], [20 x i32]* %13, i64 0, i64 %117
  %119 = load i32, i32* %118, align 4
  store i32 %119, i32* %14, align 4
  %120 = load i32, i32* %12, align 4
  store i32 %120, i32* %17, align 4
  br label %121

121:                                              ; preds = %115, %108
  br label %122

122:                                              ; preds = %121
  %123 = load i32, i32* %12, align 4
  %124 = add nsw i32 %123, 1
  store i32 %124, i32* %12, align 4
  br label %104

125:                                              ; preds = %104
  %126 = load i32, i32* %17, align 4
  %127 = sext i32 %126 to i64
  %128 = getelementptr inbounds [500 x i32], [500 x i32]* %8, i64 0, i64 %127
  %129 = load i32, i32* %128, align 4
  %130 = load i32, i32* %17, align 4
  %131 = sext i32 %130 to i64
  %132 = getelementptr inbounds [20 x i32], [20 x i32]* %13, i64 0, i64 %131
  %133 = load i32, i32* %132, align 4
  %134 = sub nsw i32 %129, %133
  store i32 %134, i32* %7, align 4
  br label %135

135:                                              ; preds = %149, %125
  %136 = load i32, i32* %7, align 4
  %137 = load i32, i32* %17, align 4
  %138 = sext i32 %137 to i64
  %139 = getelementptr inbounds [500 x i32], [500 x i32]* %8, i64 0, i64 %138
  %140 = load i32, i32* %139, align 4
  %141 = icmp slt i32 %136, %140
  br i1 %141, label %142, label %152

142:                                              ; preds = %135
  %143 = load i32, i32* %7, align 4
  %144 = sext i32 %143 to i64
  %145 = getelementptr inbounds [500 x i8], [500 x i8]* %6, i64 0, i64 %144
  %146 = load i8, i8* %145, align 1
  %147 = sext i8 %146 to i32
  %148 = call i32 (i8*, ...) @printf(i8* getelementptr inbounds ([3 x i8], [3 x i8]* @.str, i64 0, i64 0), i32 %147)
  br label %149

149:                                              ; preds = %142
  %150 = load i32, i32* %7, align 4
  %151 = add nsw i32 %150, 1
  store i32 %151, i32* %7, align 4
  br label %135

152:                                              ; preds = %135
  %153 = call i32 (i8*, ...) @printf(i8* getelementptr inbounds ([2 x i8], [2 x i8]* @.str.1, i64 0, i64 0))
  %154 = load i32, i32* %16, align 4
  %155 = sext i32 %154 to i64
  %156 = getelementptr inbounds [500 x i32], [500 x i32]* %8, i64 0, i64 %155
  %157 = load i32, i32* %156, align 4
  %158 = load i32, i32* %16, align 4
  %159 = sext i32 %158 to i64
  %160 = getelementptr inbounds [20 x i32], [20 x i32]* %13, i64 0, i64 %159
  %161 = load i32, i32* %160, align 4
  %162 = sub nsw i32 %157, %161
  store i32 %162, i32* %7, align 4
  br label %163

163:                                              ; preds = %177, %152
  %164 = load i32, i32* %7, align 4
  %165 = load i32, i32* %16, align 4
  %166 = sext i32 %165 to i64
  %167 = getelementptr inbounds [500 x i32], [500 x i32]* %8, i64 0, i64 %166
  %168 = load i32, i32* %167, align 4
  %169 = icmp slt i32 %164, %168
  br i1 %169, label %170, label %180

170:                                              ; preds = %163
  %171 = load i32, i32* %7, align 4
  %172 = sext i32 %171 to i64
  %173 = getelementptr inbounds [500 x i8], [500 x i8]* %6, i64 0, i64 %172
  %174 = load i8, i8* %173, align 1
  %175 = sext i8 %174 to i32
  %176 = call i32 (i8*, ...) @printf(i8* getelementptr inbounds ([3 x i8], [3 x i8]* @.str, i64 0, i64 0), i32 %175)
  br label %177

177:                                              ; preds = %170
  %178 = load i32, i32* %7, align 4
  %179 = add nsw i32 %178, 1
  store i32 %179, i32* %7, align 4
  br label %163

180:                                              ; preds = %163
  %181 = call i32 (i8*, ...) @printf(i8* getelementptr inbounds ([2 x i8], [2 x i8]* @.str.1, i64 0, i64 0))
  ret i32 0
}